target datalayout = "e-m:e-p270:32:32-p271:32:32-p272:64:64-i64:64-i128:128-f80:128-n8:16:32:64-S128"
target triple = "x86_64-pc-linux-gnu"

%class.MD5 = type { i8, [64 x i8], [2 x i32], [4 x i32], [16 x i8] }

@_ZZN3MD58finalizeEvE7padding = internal global <{ i8, [63 x i8] }> <{ i8 -128, [63 x i8] zeroinitializer }>, align 16

; Function Attrs: mustprogress uwtable
define void @_ZN3MD56updateEPKhj(ptr noundef nonnull align 4 dereferenceable(108) %0, ptr noundef %1, i32 noundef %2) #4 align 2 {
  %4 = alloca ptr, align 8
  %5 = alloca ptr, align 8
  %6 = alloca i32, align 4
  %7 = alloca i32, align 4
  %8 = alloca i32, align 4
  %9 = alloca i32, align 4
  store ptr %0, ptr %4, align 8, !tbaa !6
  store ptr %1, ptr %5, align 8, !tbaa !18
  store i32 %2, ptr %6, align 4, !tbaa !14
  %10 = load ptr, ptr %4, align 8
  call void @llvm.lifetime.start.p0(i64 4, ptr %7) #3
  %11 = getelementptr inbounds nuw %class.MD5, ptr %10, i32 0, i32 2
  %12 = getelementptr inbounds [2 x i32], ptr %11, i64 0, i64 0
  %13 = load i32, ptr %12, align 4, !tbaa !14
  %14 = udiv i32 %13, 8
  %15 = urem i32 %14, 64
  store i32 %15, ptr %7, align 4, !tbaa !14
  %16 = load i32, ptr %6, align 4, !tbaa !14
  %17 = shl i32 %16, 3
  %18 = getelementptr inbounds nuw %class.MD5, ptr %10, i32 0, i32 2
  %19 = getelementptr inbounds [2 x i32], ptr %18, i64 0, i64 0
  %20 = load i32, ptr %19, align 4, !tbaa !14
  %21 = add i32 %20, %17
  store i32 %21, ptr %19, align 4, !tbaa !14
  %22 = load i32, ptr %6, align 4, !tbaa !14
  %23 = shl i32 %22, 3
  %24 = icmp ult i32 %21, %23
  br i1 %24, label %25, label %30

25:                                               ; preds = %3
  %26 = getelementptr inbounds nuw %class.MD5, ptr %10, i32 0, i32 2
  %27 = getelementptr inbounds [2 x i32], ptr %26, i64 0, i64 1
  %28 = load i32, ptr %27, align 4, !tbaa !14
  %29 = add i32 %28, 1
  store i32 %29, ptr %27, align 4, !tbaa !14
  br label %30

30:                                               ; preds = %25, %3
  %31 = load i32, ptr %6, align 4, !tbaa !14
  %32 = lshr i32 %31, 29
  %33 = getelementptr inbounds nuw %class.MD5, ptr %10, i32 0, i32 2
  %34 = getelementptr inbounds [2 x i32], ptr %33, i64 0, i64 1
  %35 = load i32, ptr %34, align 4, !tbaa !14
  %36 = add i32 %35, %32
  store i32 %36, ptr %34, align 4, !tbaa !14
  call void @llvm.lifetime.start.p0(i64 4, ptr %8) #3
  %37 = load i32, ptr %7, align 4, !tbaa !14
  %38 = sub i32 64, %37
  store i32 %38, ptr %8, align 4, !tbaa !14
  call void @llvm.lifetime.start.p0(i64 4, ptr %9) #3
  %39 = load i32, ptr %6, align 4, !tbaa !14
  %40 = load i32, ptr %8, align 4, !tbaa !14
  %41 = icmp uge i32 %39, %40
  br i1 %41, label %42, label %67

42:                                               ; preds = %30
  %43 = getelementptr inbounds nuw %class.MD5, ptr %10, i32 0, i32 1
  %44 = load i32, ptr %7, align 4, !tbaa !14
  %45 = zext i32 %44 to i64
  %46 = getelementptr inbounds nuw [64 x i8], ptr %43, i64 0, i64 %45
  %47 = load ptr, ptr %5, align 8, !tbaa !18
  %48 = load i32, ptr %8, align 4, !tbaa !14
  %49 = zext i32 %48 to i64
  call void @llvm.memcpy.p0.p0.i64(ptr align 1 %46, ptr align 1 %47, i64 %49, i1 false)
  %50 = getelementptr inbounds nuw %class.MD5, ptr %10, i32 0, i32 1
  %51 = getelementptr inbounds [64 x i8], ptr %50, i64 0, i64 0
  call void @_ZN3MD59transformEPKh(ptr noundef nonnull align 4 dereferenceable(108) %10, ptr noundef %51)
  %52 = load i32, ptr %8, align 4, !tbaa !14
  store i32 %52, ptr %9, align 4, !tbaa !14
  br label %53

53:                                               ; preds = %63, %42
  %54 = load i32, ptr %9, align 4, !tbaa !14
  %55 = add i32 %54, 64
  %56 = load i32, ptr %6, align 4, !tbaa !14
  %57 = icmp ule i32 %55, %56
  br i1 %57, label %58, label %66

58:                                               ; preds = %53
  %59 = load ptr, ptr %5, align 8, !tbaa !18
  %60 = load i32, ptr %9, align 4, !tbaa !14
  %61 = zext i32 %60 to i64
  %62 = getelementptr inbounds nuw i8, ptr %59, i64 %61
  call void @_ZN3MD59transformEPKh(ptr noundef nonnull align 4 dereferenceable(108) %10, ptr noundef %62)
  br label %63

63:                                               ; preds = %58
  %64 = load i32, ptr %9, align 4, !tbaa !14
  %65 = add i32 %64, 64
  store i32 %65, ptr %9, align 4, !tbaa !14
  br label %53, !llvm.loop !32

66:                                               ; preds = %53
  store i32 0, ptr %7, align 4, !tbaa !14
  br label %68

67:                                               ; preds = %30
  store i32 0, ptr %9, align 4, !tbaa !14
  br label %68

68:                                               ; preds = %67, %66
  %69 = getelementptr inbounds nuw %class.MD5, ptr %10, i32 0, i32 1
  %70 = load i32, ptr %7, align 4, !tbaa !14
  %71 = zext i32 %70 to i64
  %72 = getelementptr inbounds nuw [64 x i8], ptr %69, i64 0, i64 %71
  %73 = load ptr, ptr %5, align 8, !tbaa !18
  %74 = load i32, ptr %9, align 4, !tbaa !14
  %75 = zext i32 %74 to i64
  %76 = getelementptr inbounds nuw i8, ptr %73, i64 %75
  %77 = load i32, ptr %6, align 4, !tbaa !14
  %78 = load i32, ptr %9, align 4, !tbaa !14
  %79 = sub i32 %77, %78
  %80 = zext i32 %79 to i64
  call void @llvm.memcpy.p0.p0.i64(ptr align 1 %72, ptr align 1 %76, i64 %80, i1 false)
  call void @llvm.lifetime.end.p0(i64 4, ptr %9) #3
  call void @llvm.lifetime.end.p0(i64 4, ptr %8) #3
  call void @llvm.lifetime.end.p0(i64 4, ptr %7) #3
  ret void
}

; Function Attrs: mustprogress nounwind uwtable
define void @_ZN3MD56encodeEPhPKjj(ptr noundef %0, ptr noundef %1, i32 noundef %2) #5 align 2 {
  %4 = alloca ptr, align 8
  %5 = alloca ptr, align 8
  %6 = alloca i32, align 4
  %7 = alloca i32, align 4
  %8 = alloca i32, align 4
  store ptr %0, ptr %4, align 8, !tbaa !18
  store ptr %1, ptr %5, align 8, !tbaa !26
  store i32 %2, ptr %6, align 4, !tbaa !14
  call void @llvm.lifetime.start.p0(i64 4, ptr %7) #3
  store i32 0, ptr %7, align 4, !tbaa !14
  call void @llvm.lifetime.start.p0(i64 4, ptr %8) #3
  store i32 0, ptr %8, align 4, !tbaa !14
  br label %9

9:                                                ; preds = %65, %3
  %10 = load i32, ptr %8, align 4, !tbaa !14
  %11 = load i32, ptr %6, align 4, !tbaa !14
  %12 = icmp ult i32 %10, %11
  br i1 %12, label %14, label %13

13:                                               ; preds = %9
  call void @llvm.lifetime.end.p0(i64 4, ptr %8) #3
  call void @llvm.lifetime.end.p0(i64 4, ptr %7) #3
  br label %70

14:                                               ; preds = %9
  %15 = load ptr, ptr %5, align 8, !tbaa !26
  %16 = load i32, ptr %7, align 4, !tbaa !14
  %17 = zext i32 %16 to i64
  %18 = getelementptr inbounds nuw i32, ptr %15, i64 %17
  %19 = load i32, ptr %18, align 4, !tbaa !14
  %20 = and i32 %19, 255
  %21 = trunc i32 %20 to i8
  %22 = load ptr, ptr %4, align 8, !tbaa !18
  %23 = load i32, ptr %8, align 4, !tbaa !14
  %24 = zext i32 %23 to i64
  %25 = getelementptr inbounds nuw i8, ptr %22, i64 %24
  store i8 %21, ptr %25, align 1, !tbaa !28
  %26 = load ptr, ptr %5, align 8, !tbaa !26
  %27 = load i32, ptr %7, align 4, !tbaa !14
  %28 = zext i32 %27 to i64
  %29 = getelementptr inbounds nuw i32, ptr %26, i64 %28
  %30 = load i32, ptr %29, align 4, !tbaa !14
  %31 = lshr i32 %30, 8
  %32 = and i32 %31, 255
  %33 = trunc i32 %32 to i8
  %34 = load ptr, ptr %4, align 8, !tbaa !18
  %35 = load i32, ptr %8, align 4, !tbaa !14
  %36 = add i32 %35, 1
  %37 = zext i32 %36 to i64
  %38 = getelementptr inbounds nuw i8, ptr %34, i64 %37
  store i8 %33, ptr %38, align 1, !tbaa !28
  %39 = load ptr, ptr %5, align 8, !tbaa !26
  %40 = load i32, ptr %7, align 4, !tbaa !14
  %41 = zext i32 %40 to i64
  %42 = getelementptr inbounds nuw i32, ptr %39, i64 %41
  %43 = load i32, ptr %42, align 4, !tbaa !14
  %44 = lshr i32 %43, 16
  %45 = and i32 %44, 255
  %46 = trunc i32 %45 to i8
  %47 = load ptr, ptr %4, align 8, !tbaa !18
  %48 = load i32, ptr %8, align 4, !tbaa !14
  %49 = add i32 %48, 2
  %50 = zext i32 %49 to i64
  %51 = getelementptr inbounds nuw i8, ptr %47, i64 %50
  store i8 %46, ptr %51, align 1, !tbaa !28
  %52 = load ptr, ptr %5, align 8, !tbaa !26
  %53 = load i32, ptr %7, align 4, !tbaa !14
  %54 = zext i32 %53 to i64
  %55 = getelementptr inbounds nuw i32, ptr %52, i64 %54
  %56 = load i32, ptr %55, align 4, !tbaa !14
  %57 = lshr i32 %56, 24
  %58 = and i32 %57, 255
  %59 = trunc i32 %58 to i8
  %60 = load ptr, ptr %4, align 8, !tbaa !18
  %61 = load i32, ptr %8, align 4, !tbaa !14
  %62 = add i32 %61, 3
  %63 = zext i32 %62 to i64
  %64 = getelementptr inbounds nuw i8, ptr %60, i64 %63
  store i8 %59, ptr %64, align 1, !tbaa !28
  br label %65

65:                                               ; preds = %14
  %66 = load i32, ptr %7, align 4, !tbaa !14
  %67 = add i32 %66, 1
  store i32 %67, ptr %7, align 4, !tbaa !14
  %68 = load i32, ptr %8, align 4, !tbaa !14
  %69 = add i32 %68, 4
  store i32 %69, ptr %8, align 4, !tbaa !14
  br label %9, !llvm.loop !31

70:                                               ; preds = %13
  ret void
}

; Function Attrs: mustprogress uwtable
define noundef nonnull align 4 dereferenceable(108) ptr @_ZN3MD58finalizeEv(ptr noundef nonnull align 4 dereferenceable(108) %0) #4 align 2 {
  %2 = alloca ptr, align 8
  %3 = alloca [8 x i8], align 1
  %4 = alloca i32, align 4
  %5 = alloca i32, align 4
  store ptr %0, ptr %2, align 8, !tbaa !6
  %6 = load ptr, ptr %2, align 8
  %7 = getelementptr inbounds nuw %class.MD5, ptr %6, i32 0, i32 0
  %8 = load i8, ptr %7, align 4, !tbaa !11, !range !24, !noundef !25
  %9 = trunc i8 %8 to i1
  br i1 %9, label %40, label %10

10:                                               ; preds = %1
  call void @llvm.lifetime.start.p0(i64 8, ptr %3) #3
  %11 = getelementptr inbounds [8 x i8], ptr %3, i64 0, i64 0
  %12 = getelementptr inbounds nuw %class.MD5, ptr %6, i32 0, i32 2
  %13 = getelementptr inbounds [2 x i32], ptr %12, i64 0, i64 0
  call void @_ZN3MD56encodeEPhPKjj(ptr noundef %11, ptr noundef %13, i32 noundef 8)
  call void @llvm.lifetime.start.p0(i64 4, ptr %4) #3
  %14 = getelementptr inbounds nuw %class.MD5, ptr %6, i32 0, i32 2
  %15 = getelementptr inbounds [2 x i32], ptr %14, i64 0, i64 0
  %16 = load i32, ptr %15, align 4, !tbaa !14
  %17 = udiv i32 %16, 8
  %18 = urem i32 %17, 64
  store i32 %18, ptr %4, align 4, !tbaa !14
  call void @llvm.lifetime.start.p0(i64 4, ptr %5) #3
  %19 = load i32, ptr %4, align 4, !tbaa !14
  %20 = icmp ult i32 %19, 56
  br i1 %20, label %21, label %24

21:                                               ; preds = %10
  %22 = load i32, ptr %4, align 4, !tbaa !14
  %23 = sub i32 56, %22
  br label %27

24:                                               ; preds = %10
  %25 = load i32, ptr %4, align 4, !tbaa !14
  %26 = sub i32 120, %25
  br label %27

27:                                               ; preds = %24, %21
  %28 = phi i32 [ %23, %21 ], [ %26, %24 ]
  store i32 %28, ptr %5, align 4, !tbaa !14
  %29 = load i32, ptr %5, align 4, !tbaa !14
  call void @_ZN3MD56updateEPKhj(ptr noundef nonnull align 4 dereferenceable(108) %6, ptr noundef @_ZZN3MD58finalizeEvE7padding, i32 noundef %29)
  %30 = getelementptr inbounds [8 x i8], ptr %3, i64 0, i64 0
  call void @_ZN3MD56updateEPKhj(ptr noundef nonnull align 4 dereferenceable(108) %6, ptr noundef %30, i32 noundef 8)
  %31 = getelementptr inbounds nuw %class.MD5, ptr %6, i32 0, i32 4
  %32 = getelementptr inbounds [16 x i8], ptr %31, i64 0, i64 0
  %33 = getelementptr inbounds nuw %class.MD5, ptr %6, i32 0, i32 3
  %34 = getelementptr inbounds [4 x i32], ptr %33, i64 0, i64 0
  call void @_ZN3MD56encodeEPhPKjj(ptr noundef %32, ptr noundef %34, i32 noundef 16)
  %35 = getelementptr inbounds nuw %class.MD5, ptr %6, i32 0, i32 1
  %36 = getelementptr inbounds [64 x i8], ptr %35, i64 0, i64 0
  call void @llvm.memset.p0.i64(ptr align 1 %36, i8 0, i64 64, i1 false)
  %37 = getelementptr inbounds nuw %class.MD5, ptr %6, i32 0, i32 2
  %38 = getelementptr inbounds [2 x i32], ptr %37, i64 0, i64 0
  call void @llvm.memset.p0.i64(ptr align 4 %38, i8 0, i64 8, i1 false)
  %39 = getelementptr inbounds nuw %class.MD5, ptr %6, i32 0, i32 0
  store i8 1, ptr %39, align 4, !tbaa !11
  call void @llvm.lifetime.end.p0(i64 4, ptr %5) #3
  call void @llvm.lifetime.end.p0(i64 4, ptr %4) #3
  call void @llvm.lifetime.end.p0(i64 8, ptr %3) #3
  br label %40

40:                                               ; preds = %27, %1
  ret ptr %6
}