; Function Attrs: mustprogress nofree norecurse nosync nounwind memory(readwrite, inaccessiblemem: none) uwtable
define noundef nonnull align 4 dereferenceable(108) ptr @_ZN3MD58finalizeEv(ptr noundef nonnull returned align 4 dereferenceable(108) %0) local_unnamed_addr #4 align 2 {
  %2 = alloca [8 x i8], align 1
  %3 = load i8, ptr %0, align 4, !tbaa !6, !range !22, !noundef !23
  %4 = trunc nuw i8 %3 to i1
  br i1 %4, label %97, label %5

5:                                                ; preds = %1
  call void @llvm.lifetime.start.p0(i64 8, ptr nonnull %2) #17
  %6 = getelementptr inbounds nuw i8, ptr %0, i64 68
  br label %.lr.ph.i

.lr.ph.i:                                         ; preds = %.lr.ph.i, %5
  %indvars.iv22.i = phi i64 [ 0, %5 ], [ %indvars.iv.next23.i, %.lr.ph.i ]
  %indvars.iv.i = phi i64 [ 0, %5 ], [ %indvars.iv.next.i, %.lr.ph.i ]
  %7 = getelementptr inbounds nuw i32, ptr %6, i64 %indvars.iv22.i
  %8 = load i32, ptr %7, align 4, !tbaa !11
  %9 = trunc i32 %8 to i8
  %10 = getelementptr inbounds nuw i8, ptr %2, i64 %indvars.iv.i
  store i8 %9, ptr %10, align 1, !tbaa !24
  %11 = lshr i32 %8, 8
  %12 = trunc i32 %11 to i8
  %13 = or disjoint i64 %indvars.iv.i, 1
  %14 = getelementptr inbounds nuw i8, ptr %2, i64 %13
  store i8 %12, ptr %14, align 1, !tbaa !24
  %15 = lshr i32 %8, 16
  %16 = trunc i32 %15 to i8
  %17 = or disjoint i64 %indvars.iv.i, 2
  %18 = getelementptr inbounds nuw i8, ptr %2, i64 %17
  store i8 %16, ptr %18, align 1, !tbaa !24
  %19 = lshr i32 %8, 24
  %20 = trunc nuw i32 %19 to i8
  %21 = or disjoint i64 %indvars.iv.i, 3
  %22 = getelementptr inbounds nuw i8, ptr %2, i64 %21
  store i8 %20, ptr %22, align 1, !tbaa !24
  %indvars.iv.next23.i = add nuw nsw i64 %indvars.iv22.i, 1
  %indvars.iv.next.i = add nuw nsw i64 %indvars.iv.i, 4
  %exitcond.not.i = icmp eq i64 %indvars.iv.next23.i, 2
  br i1 %exitcond.not.i, label %_ZN3MD56encodeEPhPKjj.exit, label %.lr.ph.i, !llvm.loop !25

_ZN3MD56encodeEPhPKjj.exit:                       ; preds = %.lr.ph.i
  %23 = load i32, ptr %6, align 4, !tbaa !11
  %24 = lshr i32 %23, 3
  %25 = and i32 %24, 63
  %26 = icmp samesign ult i32 %25, 56
  %.v = select i1 %26, i32 56, i32 120
  %27 = sub nsw i32 %.v, %25
  %28 = shl nsw i32 %27, 3
  %29 = add i32 %28, %23
  store i32 %29, ptr %6, align 4, !tbaa !11
  %30 = icmp ult i32 %29, %28
  %31 = getelementptr inbounds nuw i8, ptr %0, i64 72
  %32 = load i32, ptr %31, align 4, !tbaa !11
  %33 = zext i1 %30 to i32
  %34 = lshr i32 %27, 29
  %35 = add i32 %34, %32
  %36 = add i32 %35, %33
  store i32 %36, ptr %31, align 4, !tbaa !11
  %37 = sub nuw nsw i32 64, %25
  %.not.i = icmp ult i32 %27, %37
  br i1 %.not.i, label %48, label %38

38:                                               ; preds = %_ZN3MD56encodeEPhPKjj.exit
  %39 = getelementptr inbounds nuw i8, ptr %0, i64 1
  %40 = zext nneg i32 %25 to i64
  %41 = getelementptr inbounds nuw [64 x i8], ptr %39, i64 0, i64 %40
  %42 = zext nneg i32 %37 to i64
  tail call void @llvm.memcpy.p0.p0.i64(ptr noundef nonnull align 1 dereferenceable(1) %41, ptr noundef nonnull align 16 dereferenceable(1) @_ZZN3MD58finalizeEvE7padding, i64 %42, i1 false)
  tail call void @_ZN3MD59transformEPKh(ptr noundef nonnull align 4 dereferenceable(108) %0, ptr noundef nonnull %39)
  %43 = sub nuw nsw i32 128, %25
  %.not2425.i = icmp ugt i32 %43, %27
  br i1 %.not2425.i, label %_ZN3MD56updateEPKhj.exit, label %.lr.ph.i4

.lr.ph.i4:                                        ; preds = %38, %.lr.ph.i4
  %44 = phi i32 [ %47, %.lr.ph.i4 ], [ %43, %38 ]
  %.026.i = phi i32 [ %44, %.lr.ph.i4 ], [ %37, %38 ]
  %45 = zext i32 %.026.i to i64
  %46 = getelementptr inbounds nuw i8, ptr @_ZZN3MD58finalizeEvE7padding, i64 %45
  tail call void @_ZN3MD59transformEPKh(ptr noundef nonnull align 4 dereferenceable(108) %0, ptr noundef nonnull readonly %46)
  %47 = add i32 %44, 64
  %.not24.i = icmp ugt i32 %47, %27
  br i1 %.not24.i, label %_ZN3MD56updateEPKhj.exit, label %.lr.ph.i4, !llvm.loop !20

48:                                               ; preds = %_ZN3MD56encodeEPhPKjj.exit
  %49 = zext nneg i32 %25 to i64
  br label %_ZN3MD56updateEPKhj.exit

_ZN3MD56updateEPKhj.exit:                         ; preds = %.lr.ph.i4, %38, %48
  %.020.i = phi i64 [ %49, %48 ], [ 0, %38 ], [ 0, %.lr.ph.i4 ]
  %.1.i = phi i32 [ 0, %48 ], [ %37, %38 ], [ %44, %.lr.ph.i4 ]
  %50 = getelementptr inbounds nuw i8, ptr %0, i64 1
  %51 = getelementptr inbounds nuw [64 x i8], ptr %50, i64 0, i64 %.020.i
  %52 = zext i32 %.1.i to i64
  %53 = getelementptr inbounds nuw i8, ptr @_ZZN3MD58finalizeEvE7padding, i64 %52
  %54 = sub i32 %27, %.1.i
  %55 = zext i32 %54 to i64
  tail call void @llvm.memcpy.p0.p0.i64(ptr nonnull align 1 %51, ptr nonnull readonly align 1 %53, i64 %55, i1 false)
  %56 = load i32, ptr %6, align 4, !tbaa !11
  %57 = lshr i32 %56, 3
  %58 = and i32 %57, 63
  %59 = add i32 %56, 64
  store i32 %59, ptr %6, align 4, !tbaa !11
  %60 = icmp ugt i32 %56, -65
  %61 = load i32, ptr %31, align 4, !tbaa !11
  %62 = zext i1 %60 to i32
  %63 = add i32 %61, %62
  store i32 %63, ptr %31, align 4, !tbaa !11
  %.not.i5 = icmp samesign ult i32 %58, 56
  br i1 %.not.i5, label %69, label %64

64:                                               ; preds = %_ZN3MD56updateEPKhj.exit
  %65 = sub nuw nsw i32 64, %58
  %66 = zext nneg i32 %58 to i64
  %67 = getelementptr inbounds nuw [64 x i8], ptr %50, i64 0, i64 %66
  %68 = zext nneg i32 %65 to i64
  call void @llvm.memcpy.p0.p0.i64(ptr noundef nonnull align 1 dereferenceable(1) %67, ptr noundef nonnull readonly align 1 dereferenceable(1) %2, i64 %68, i1 false)
  tail call void @_ZN3MD59transformEPKh(ptr noundef nonnull align 4 dereferenceable(108) %0, ptr noundef nonnull %50)
  br label %_ZN3MD56updateEPKhj.exit12

69:                                               ; preds = %_ZN3MD56updateEPKhj.exit
  %70 = zext nneg i32 %58 to i64
  br label %_ZN3MD56updateEPKhj.exit12

_ZN3MD56updateEPKhj.exit12:                       ; preds = %64, %69
  %.020.i10 = phi i64 [ %70, %69 ], [ 0, %64 ]
  %.1.i11 = phi i32 [ 0, %69 ], [ %65, %64 ]
  %71 = getelementptr inbounds nuw [64 x i8], ptr %50, i64 0, i64 %.020.i10
  %72 = zext nneg i32 %.1.i11 to i64
  %73 = getelementptr inbounds nuw i8, ptr %2, i64 %72
  %74 = sub nuw nsw i32 8, %.1.i11
  %75 = zext nneg i32 %74 to i64
  call void @llvm.memcpy.p0.p0.i64(ptr nonnull align 1 %71, ptr nonnull readonly align 1 %73, i64 %75, i1 false)
  %76 = getelementptr inbounds nuw i8, ptr %0, i64 92
  %77 = getelementptr inbounds nuw i8, ptr %0, i64 76
  br label %.lr.ph.i13

.lr.ph.i13:                                       ; preds = %.lr.ph.i13, %_ZN3MD56updateEPKhj.exit12
  %indvars.iv22.i14 = phi i64 [ 0, %_ZN3MD56updateEPKhj.exit12 ], [ %indvars.iv.next23.i16, %.lr.ph.i13 ]
  %indvars.iv.i15 = phi i64 [ 0, %_ZN3MD56updateEPKhj.exit12 ], [ %indvars.iv.next.i17, %.lr.ph.i13 ]
  %78 = getelementptr inbounds nuw i32, ptr %77, i64 %indvars.iv22.i14
  %79 = load i32, ptr %78, align 4, !tbaa !11
  %80 = trunc i32 %79 to i8
  %81 = getelementptr inbounds nuw i8, ptr %76, i64 %indvars.iv.i15
  store i8 %80, ptr %81, align 4, !tbaa !24
  %82 = load i32, ptr %78, align 4, !tbaa !11
  %83 = lshr i32 %82, 8
  %84 = trunc i32 %83 to i8
  %85 = or disjoint i64 %indvars.iv.i15, 1
  %86 = getelementptr inbounds nuw i8, ptr %76, i64 %85
  store i8 %84, ptr %86, align 1, !tbaa !24
  %87 = load i32, ptr %78, align 4, !tbaa !11
  %88 = lshr i32 %87, 16
  %89 = trunc i32 %88 to i8
  %90 = or disjoint i64 %indvars.iv.i15, 2
  %91 = getelementptr inbounds nuw i8, ptr %76, i64 %90
  store i8 %89, ptr %91, align 2, !tbaa !24
  %92 = load i32, ptr %78, align 4, !tbaa !11
  %93 = lshr i32 %92, 24
  %94 = trunc nuw i32 %93 to i8
  %95 = or disjoint i64 %indvars.iv.i15, 3
  %96 = getelementptr inbounds nuw i8, ptr %76, i64 %95
  store i8 %94, ptr %96, align 1, !tbaa !24
  %indvars.iv.next23.i16 = add nuw nsw i64 %indvars.iv22.i14, 1
  %indvars.iv.next.i17 = add nuw nsw i64 %indvars.iv.i15, 4
  %exitcond.not.i18 = icmp eq i64 %indvars.iv.next23.i16, 4
  br i1 %exitcond.not.i18, label %_ZN3MD56encodeEPhPKjj.exit19, label %.lr.ph.i13, !llvm.loop !25

_ZN3MD56encodeEPhPKjj.exit19:                     ; preds = %.lr.ph.i13
  tail call void @llvm.memset.p0.i64(ptr noundef nonnull align 1 dereferenceable(64) %50, i8 0, i64 64, i1 false)
  store i64 0, ptr %6, align 4
  store i8 1, ptr %0, align 4, !tbaa !6
  call void @llvm.lifetime.end.p0(i64 8, ptr nonnull %2) #17
  br label %97

97:                                               ; preds = %_ZN3MD56encodeEPhPKjj.exit19, %1
  ret ptr %0
}